(dp1
I0
I35466
sI1
I93529
sI2
I39081057
sI3
I765894726
sI4
I4781547054
sI5
I6981559572
sI6
I4563338226
sI7
I1954664192
sI8
I702690734
sI9
I230422804
sI10
I73561882
sI11
I22181019
sI12
I6548157
sI13
I2140059
sI14
I869963
sI15
I285857
sI16
I69088
sI17
I15924
sI18
I3837
sI19
I1000
sI20
I174
sI21
I36
sI22
I11
sI23
I3
s.