(dp1
I0
I35465
sI1
I95733
sI2
I39870496
sI3
I771550565
sI4
I4795713008
sI5
I6974046057
sI6
I4550318132
sI7
I1956027993
sI8
I703283751
sI9
I229835381
sI10
I72613936
sI11
I21627235
sI12
I6303051
sI13
I2061490
sI14
I837391
sI15
I274864
sI16
I65651
sI17
I14695
sI18
I3030
sI19
I715
sI20
I109
sI21
I21
sI22
I13
sI23
I3
s.