(dp1
I0
I35465
sI1
I87885
sI2
I39452221
sI3
I763146618
sI4
I4796027484
sI5
I6988268922
sI6
I4544635356
sI7
I1954623867
sI8
I703504216
sI9
I230446738
sI10
I72902770
sI11
I21752591
sI12
I6345629
sI13
I2060857
sI14
I837652
sI15
I285322
sI16
I71312
sI17
I17236
sI18
I4260
sI19
I1079
sI20
I288
sI21
I61
sI22
I13
sI23
I10
sI24
I3
s.