(dp1
I0
I35465
sI1
I92521
sI2
I39231074
sI3
I758985852
sI4
I4786644164
sI5
I6987571000
sI6
I4556556537
sI7
I1958316584
sI8
I702396393
sI9
I230225464
sI10
I73041201
sI11
I21811586
sI12
I6421701
sI13
I2122978
sI14
I876383
sI15
I295291
sI16
I73124
sI17
I17807
sI18
I4293
sI19
I962
sI20
I189
sI21
I48
sI22
I28
s.