(dp1
I0
I35466
sI1
I87296
sI2
I38733886
sI3
I759022880
sI4
I4809926302
sI5
I6984441629
sI6
I4542184274
sI7
I1953029808
sI8
I703001694
sI9
I230362782
sI10
I72888425
sI11
I21737448
sI12
I6387936
sI13
I2079211
sI14
I852827
sI15
I284209
sI16
I69371
sI17
I16097
sI18
I3617
sI19
I838
sI20
I182
sI21
I42
sI22
I14
s.