(dp1
I0
I35466
sI1
I96179
sI2
I40134410
sI3
I771591276
sI4
I4785519785
sI5
I6972140623
sI6
I4557039558
sI7
I1958986354
sI8
I703875996
sI9
I230776032
sI10
I73160373
sI11
I21823621
sI12
I6395617
sI13
I2090395
sI14
I859547
sI15
I284019
sI16
I68083
sI17
I15685
sI18
I3848
sI19
I915
sI20
I136
sI21
I39
sI22
I12
sI23
I3
s.