(dp1
I0
I35466
sI1
I96269
sI2
I38373654
sI3
I760160629
sI4
I4798793760
sI5
I6991067131
sI6
I4547421893
sI7
I1950006167
sI8
I703043993
sI9
I230982539
sI10
I73254786
sI11
I21824993
sI12
I6426840
sI13
I2125271
sI14
I870431
sI15
I287308
sI16
I69904
sI17
I16401
sI18
I3890
sI19
I915
sI20
I201
sI21
I49
sI22
I13
sI23
I3
s.