(dp1
I0
I35466
sI1
I91502
sI2
I39494144
sI3
I768437839
sI4
I4804728309
sI5
I6975234655
sI6
I4543920702
sI7
I1954053205
sI8
I702962461
sI9
I230626780
sI10
I73442067
sI11
I22081702
sI12
I6555569
sI13
I2165741
sI14
I873004
sI15
I284726
sI16
I67466
sI17
I15464
sI18
I3529
sI19
I757
sI20
I158
sI21
I50
sI22
I6
s.