(dp1
I0
I35465
sI1
I87584
sI2
I38927511
sI3
I761614677
sI4
I4794874329
sI5
I6983810656
sI6
I4551453016
sI7
I1954569497
sI8
I703611505
sI9
I230788926
sI10
I73194823
sI11
I21956409
sI12
I6481088
sI13
I2117616
sI14
I866077
sI15
I297214
sI16
I77491
sI17
I20418
sI18
I5518
sI19
I1322
sI20
I326
sI21
I74
sI22
I13
sI23
I19
sI24
I1
s.