(dp1
I0
I35465
sI1
I85487
sI2
I38767181
sI3
I759365202
sI4
I4799573956
sI5
I6987732288
sI6
I4546991534
sI7
I1953656152
sI8
I702175664
sI9
I231030200
sI10
I73365921
sI11
I21962524
sI12
I6493558
sI13
I2142621
sI14
I879632
sI15
I294336
sI16
I74444
sI17
I18051
sI18
I4302
sI19
I921
sI20
I194
sI21
I54
sI22
I28
s.