(dp1
I0
I35466
sI1
I84734
sI2
I38477655
sI3
I756874961
sI4
I4787276525
sI5
I6986557424
sI6
I4558367712
sI7
I1959408019
sI8
I702730706
sI9
I230023486
sI10
I73136109
sI11
I22107261
sI12
I6579543
sI13
I2154649
sI14
I862428
sI15
I279280
sI16
I65393
sI17
I14364
sI18
I3225
sI19
I721
sI20
I153
sI21
I22
s.